target datalayout = "e-m:e-p270:32:32-p271:32:32-p272:64:64-i64:64-i128:128-f80:128-n8:16:32:64-S128"
target triple = "x86_64-pc-linux-gnu"

; Function Attrs: nounwind uwtable
define internal void @lumRangeFromJpeg16_c(ptr noundef %0, i32 noundef %1, i32 noundef %2, i64 noundef %3) #0 {
  %5 = alloca ptr, align 8
  %6 = alloca i32, align 4
  %7 = alloca i32, align 4
  %8 = alloca i64, align 8
  %9 = alloca i32, align 4
  %10 = alloca ptr, align 8
  store ptr %0, ptr %5, align 8, !tbaa !104
  store i32 %1, ptr %6, align 4, !tbaa !14
  store i32 %2, ptr %7, align 4, !tbaa !14
  store i64 %3, ptr %8, align 8, !tbaa !105
  call void @llvm.lifetime.start.p0(i64 4, ptr %9) #11
  call void @llvm.lifetime.start.p0(i64 8, ptr %10) #11
  %11 = load ptr, ptr %5, align 8, !tbaa !104
  store ptr %11, ptr %10, align 8, !tbaa !12
  store i32 0, ptr %9, align 4, !tbaa !14
  br label %12

12:                                               ; preds = %34, %4
  %13 = load i32, ptr %9, align 4, !tbaa !14
  %14 = load i32, ptr %6, align 4, !tbaa !14
  %15 = icmp slt i32 %13, %14
  br i1 %15, label %16, label %37

16:                                               ; preds = %12
  %17 = load ptr, ptr %10, align 8, !tbaa !12
  %18 = load i32, ptr %9, align 4, !tbaa !14
  %19 = sext i32 %18 to i64
  %20 = getelementptr inbounds i32, ptr %17, i64 %19
  %21 = load i32, ptr %20, align 4, !tbaa !14
  %22 = sext i32 %21 to i64
  %23 = load i32, ptr %7, align 4, !tbaa !14
  %24 = zext i32 %23 to i64
  %25 = mul nsw i64 %22, %24
  %26 = load i64, ptr %8, align 8, !tbaa !105
  %27 = add nsw i64 %25, %26
  %28 = ashr i64 %27, 18
  %29 = trunc i64 %28 to i32
  %30 = load ptr, ptr %10, align 8, !tbaa !12
  %31 = load i32, ptr %9, align 4, !tbaa !14
  %32 = sext i32 %31 to i64
  %33 = getelementptr inbounds i32, ptr %30, i64 %32
  store i32 %29, ptr %33, align 4, !tbaa !14
  br label %34

34:                                               ; preds = %16
  %35 = load i32, ptr %9, align 4, !tbaa !14
  %36 = add nsw i32 %35, 1
  store i32 %36, ptr %9, align 4, !tbaa !14
  br label %12, !llvm.loop !110

37:                                               ; preds = %12
  call void @llvm.lifetime.end.p0(i64 8, ptr %10) #11
  call void @llvm.lifetime.end.p0(i64 4, ptr %9) #11
  ret void
}